; ModuleID = '44/1390.c'
source_filename = "44/1390.c"
target datalayout = "e-m:e-p270:32:32-p271:32:32-p272:64:64-i64:64-f80:128-n8:16:32:64-S128"
target triple = "x86_64-pc-linux-gnu"

@.str = private unnamed_addr constant [3 x i8] c"%d\00", align 1
@.str.1 = private unnamed_addr constant [4 x i8] c"%d\0A\00", align 1

; Function Attrs: noinline nounwind uwtable
define dso_local i32 @main() #0 {
  %1 = alloca i32, align 4
  %2 = alloca [6 x i32], align 16
  %3 = alloca [6 x i32], align 16
  %4 = alloca i32, align 4
  store i32 0, i32* %1, align 4
  store i32 0, i32* %4, align 4
  br label %5

5:                                                ; preds = %20, %0
  %6 = load i32, i32* %4, align 4
  %7 = sext i32 %6 to i64
  %8 = getelementptr inbounds [6 x i32], [6 x i32]* %2, i64 0, i64 %7
  %9 = call i32 (i8*, ...) @__isoc99_scanf(i8* getelementptr inbounds ([3 x i8], [3 x i8]* @.str, i64 0, i64 0), i32* %8)
  %10 = load i32, i32* %4, align 4
  %11 = sext i32 %10 to i64
  %12 = getelementptr inbounds [6 x i32], [6 x i32]* %2, i64 0, i64 %11
  %13 = load i32, i32* %12, align 4
  %14 = call i32 @fan(i32 %13)
  %15 = load i32, i32* %4, align 4
  %16 = sext i32 %15 to i64
  %17 = getelementptr inbounds [6 x i32], [6 x i32]* %3, i64 0, i64 %16
  store i32 %14, i32* %17, align 4
  %18 = load i32, i32* %4, align 4
  %19 = add nsw i32 %18, 1
  store i32 %19, i32* %4, align 4
  br label %20

20:                                               ; preds = %5
  %21 = load i32, i32* %4, align 4
  %22 = icmp slt i32 %21, 6
  br i1 %22, label %5, label %23

23:                                               ; preds = %20
  store i32 0, i32* %4, align 4
  br label %24

24:                                               ; preds = %32, %23
  %25 = load i32, i32* %4, align 4
  %26 = sext i32 %25 to i64
  %27 = getelementptr inbounds [6 x i32], [6 x i32]* %3, i64 0, i64 %26
  %28 = load i32, i32* %27, align 4
  %29 = call i32 (i8*, ...) @printf(i8* getelementptr inbounds ([4 x i8], [4 x i8]* @.str.1, i64 0, i64 0), i32 %28)
  %30 = load i32, i32* %4, align 4
  %31 = add nsw i32 %30, 1
  store i32 %31, i32* %4, align 4
  br label %32

32:                                               ; preds = %24
  %33 = load i32, i32* %4, align 4
  %34 = icmp slt i32 %33, 6
  br i1 %34, label %24, label %35

35:                                               ; preds = %32
  %36 = load i32, i32* %1, align 4
  ret i32 %36
}

declare dso_local i32 @__isoc99_scanf(i8*, ...) #1

; Function Attrs: noinline nounwind uwtable
define dso_local i32 @fan(i32 %0) #0 {
  %2 = alloca i32, align 4
  %3 = alloca i32, align 4
  store i32 %0, i32* %2, align 4
  store i32 0, i32* %3, align 4
  br label %4

4:                                                ; preds = %12, %1
  %5 = load i32, i32* %2, align 4
  %6 = srem i32 %5, 10
  %7 = load i32, i32* %3, align 4
  %8 = mul nsw i32 10, %7
  %9 = add nsw i32 %6, %8
  store i32 %9, i32* %3, align 4
  %10 = load i32, i32* %2, align 4
  %11 = sdiv i32 %10, 10
  store i32 %11, i32* %2, align 4
  br label %12

12:                                               ; preds = %4
  %13 = load i32, i32* %2, align 4
  %14 = icmp ne i32 %13, 0
  br i1 %14, label %4, label %15

15:                                               ; preds = %12
  %16 = load i32, i32* %3, align 4
  ret i32 %16
}

declare dso_local i32 @printf(i8*, ...) #1


!llvm.module.flags = !{!0}
!llvm.ident = !{!1}

!0 = !{i32 1, !"wchar_size", i32 4}
!1 = !{!"clang version 10.0.0-4ubuntu1 "}
